; Function Attrs: nounwind uwtable
define hidden ptr @SDL_AllocateTemporaryMemory(i64 noundef %0) local_unnamed_addr #0 {
  %2 = tail call noalias ptr @SDL_malloc_REAL(i64 noundef %0) #8
  %3 = icmp eq ptr %2, null
  br i1 %3, label %SDL_FreeLater.exit, label %4

4:                                                ; preds = %1
  %5 = tail call ptr @SDL_GetTLS_REAL(ptr noundef nonnull @SDL_temporary_memory) #8
  %.not.i.i = icmp eq ptr %5, null
  br i1 %.not.i.i, label %6, label %SDL_GetTemporaryMemoryState.exit.i

6:                                                ; preds = %4
  %7 = tail call noalias dereferenceable_or_null(16) ptr @SDL_calloc_REAL(i64 noundef 1, i64 noundef 16) #9
  %.not9.i.i = icmp eq ptr %7, null
  br i1 %.not9.i.i, label %SDL_FreeLater.exit, label %8

8:                                                ; preds = %6
  %9 = tail call zeroext i1 @SDL_SetTLS_REAL(ptr noundef nonnull @SDL_temporary_memory, ptr noundef nonnull %7, ptr noundef nonnull @SDL_CleanupTemporaryMemory) #8
  br i1 %9, label %SDL_GetTemporaryMemoryState.exit.i, label %10

10:                                               ; preds = %8
  tail call void @SDL_free_REAL(ptr noundef nonnull %7) #8
  br label %SDL_FreeLater.exit

SDL_GetTemporaryMemoryState.exit.i:               ; preds = %8, %4
  %.06.i.i = phi ptr [ %5, %4 ], [ %7, %8 ]
  %11 = tail call noalias ptr @SDL_malloc_REAL(i64 noundef 24) #8
  %.not14.i = icmp eq ptr %11, null
  br i1 %.not14.i, label %SDL_FreeLater.exit, label %12

12:                                               ; preds = %SDL_GetTemporaryMemoryState.exit.i
  store ptr %2, ptr %11, align 8
  %13 = getelementptr inbounds nuw i8, ptr %.06.i.i, i64 8
  %14 = load ptr, ptr %13, align 8
  %15 = getelementptr inbounds nuw i8, ptr %11, i64 8
  store ptr %14, ptr %15, align 8
  %16 = getelementptr inbounds nuw i8, ptr %11, i64 16
  store ptr null, ptr %16, align 8
  %.not.i15.i = icmp eq ptr %14, null
  br i1 %.not.i15.i, label %19, label %17

17:                                               ; preds = %12
  %18 = getelementptr inbounds nuw i8, ptr %14, i64 16
  store ptr %11, ptr %18, align 8
  br label %SDL_LinkTemporaryMemoryEntry.exit.i

19:                                               ; preds = %12
  store ptr %11, ptr %.06.i.i, align 8
  br label %SDL_LinkTemporaryMemoryEntry.exit.i

SDL_LinkTemporaryMemoryEntry.exit.i:              ; preds = %19, %17
  store ptr %11, ptr %13, align 8
  br label %SDL_FreeLater.exit

SDL_FreeLater.exit:                               ; preds = %1, %6, %10, %SDL_GetTemporaryMemoryState.exit.i, %SDL_LinkTemporaryMemoryEntry.exit.i
  ret ptr %2
}